(dp1
S'conjuntos'
p2
(dp3
Vpara que
p4
Vparaque
p5
sVo que
p6
Voque
p7
sVpor que
p8
Vporque
p9
ssS'siglas'
p10
(dp11
VDA
p12
Vdiretorio academico
p13
ssS'abreviacoes'
p14
(dp15
Vvc
p16
Vvoce
p17
sVpra
p18
Vpara
p19
sVeh
p20
Ve
sVfikdik
p21
Vfica a dica
p22
sVqto
p23
Vquanto
p24
sVcr
p25
Vcredito
p26
sVpq
p27
Vporque
p28
sVblz
p29
Vbeleza
p30
sVxau
p31
Vtchau
p32
sVhrs
p33
Vhora
p34
sVhra
p35
Vhora
p36
sVbjo
p37
Vbeijo
p38
sVqtos
p39
Vquanto
p40
sVtb
p41
Vtambem
p42
sVbrinks
p43
Vbrincadeira
p44
sVcntg
p45
Vcontigo
p46
sVhr
p47
Vhora
p48
sVfz
p49
Vfazer
p50
sVbj
p51
Vbeijo
p52
sVfb
p53
Vfacebook
p54
sVsdds
p55
Vsaudades
p56
sVc
Vcom
p57
sVoi
p58
Vola
p59
sVcmg
p60
Vcomigo
p61
sVobg
p62
Vobrigado
p63
sVctz
p64
Vcerteza
p65
sVn
Vnao
p66
sVq
Vque
p67
sVp
Vpara
p68
sVs
Vsim
p69
sVvdd
p70
Vverdade
p71
sVh
Vhora
p72
sVy
Vsim
p73
ssS'academico'
p74
(dp75
VCC
p76
Vciencia da computacao
p77
sVsi
p78
Vsistemas de informacao
p79
sVdcc
p80
Vdepartamento de ciencia da computacao
p81
sVcc
p82
Vciencia da computacao
p83
sVSI
p84
Vsistemas de informacao
p85
sVicex
p86
Vinstituto de ciencias exatas
p87
sVmatcomp
p88
Vmatematica computacional
p89
ss.